target datalayout = "e-m:e-p270:32:32-p271:32:32-p272:64:64-i64:64-i128:128-f80:128-n8:16:32:64-S128"
target triple = "x86_64-pc-linux-gnu"

@hf_cigi3_weather_control_entity_region_id = internal global i32 0, align 4
@hf_cigi3_weather_control_layer_id = internal global i32 0, align 4
@hf_cigi3_weather_control_humidity = internal global i32 0, align 4
@hf_cigi3_weather_control_weather_enable = internal global i32 0, align 4
@hf_cigi3_weather_control_scud_enable = internal global i32 0, align 4
@hf_cigi3_weather_control_random_winds_enable = internal global i32 0, align 4
@hf_cigi3_weather_control_random_lightning_enable = internal global i32 0, align 4
@hf_cigi3_weather_control_cloud_type = internal global i32 0, align 4
@hf_cigi3_weather_control_scope = internal global i32 0, align 4
@hf_cigi3_weather_control_severity = internal global i32 0, align 4
@hf_cigi3_weather_control_air_temp = internal global i32 0, align 4
@hf_cigi3_weather_control_visibility_range = internal global i32 0, align 4
@hf_cigi3_weather_control_scud_frequency = internal global i32 0, align 4
@hf_cigi3_weather_control_coverage = internal global i32 0, align 4
@hf_cigi3_weather_control_base_elevation = internal global i32 0, align 4
@hf_cigi3_weather_control_thickness = internal global i32 0, align 4
@hf_cigi3_weather_control_transition_band = internal global i32 0, align 4
@hf_cigi3_weather_control_horiz_wind = internal global i32 0, align 4
@hf_cigi3_weather_control_vert_wind = internal global i32 0, align 4
@hf_cigi3_weather_control_wind_direction = internal global i32 0, align 4
@hf_cigi3_weather_control_barometric_pressure = internal global i32 0, align 4
@hf_cigi3_weather_control_aerosol_concentration = internal global i32 0, align 4
@cigi_byte_order = internal global i32 0, align 4

; Function Attrs: null_pointer_is_valid sspstrong uwtable
define internal i32 @cigi3_add_weather_control(ptr noundef %0, ptr noundef %1, ptr noundef %2, ptr noundef %3) #0 {
  %5 = alloca ptr, align 8
  %6 = alloca ptr, align 8
  %7 = alloca ptr, align 8
  %8 = alloca ptr, align 8
  %9 = alloca i32, align 4
  store ptr %0, ptr %5, align 8
  store ptr %1, ptr %6, align 8
  store ptr %2, ptr %7, align 8
  store ptr %3, ptr %8, align 8
  call void @llvm.lifetime.start.p0(i64 4, ptr %9) #5
  store i32 0, ptr %9, align 4
  %10 = load ptr, ptr %7, align 8
  %11 = load i32, ptr @hf_cigi3_weather_control_entity_region_id, align 4
  %12 = load ptr, ptr %5, align 8
  %13 = load i32, ptr %9, align 4
  %14 = load i32, ptr @cigi_byte_order, align 4
  %15 = call ptr @proto_tree_add_item(ptr noundef %10, i32 noundef %11, ptr noundef %12, i32 noundef %13, i32 noundef 2, i32 noundef %14)
  %16 = load i32, ptr %9, align 4
  %17 = add i32 %16, 2
  store i32 %17, ptr %9, align 4
  %18 = load ptr, ptr %7, align 8
  %19 = load i32, ptr @hf_cigi3_weather_control_layer_id, align 4
  %20 = load ptr, ptr %5, align 8
  %21 = load i32, ptr %9, align 4
  %22 = load i32, ptr @cigi_byte_order, align 4
  %23 = call ptr @proto_tree_add_item(ptr noundef %18, i32 noundef %19, ptr noundef %20, i32 noundef %21, i32 noundef 1, i32 noundef %22)
  %24 = load i32, ptr %9, align 4
  %25 = add i32 %24, 1
  store i32 %25, ptr %9, align 4
  %26 = load ptr, ptr %7, align 8
  %27 = load i32, ptr @hf_cigi3_weather_control_humidity, align 4
  %28 = load ptr, ptr %5, align 8
  %29 = load i32, ptr %9, align 4
  %30 = load i32, ptr @cigi_byte_order, align 4
  %31 = call ptr @proto_tree_add_item(ptr noundef %26, i32 noundef %27, ptr noundef %28, i32 noundef %29, i32 noundef 1, i32 noundef %30)
  %32 = load i32, ptr %9, align 4
  %33 = add i32 %32, 1
  store i32 %33, ptr %9, align 4
  %34 = load ptr, ptr %7, align 8
  %35 = load i32, ptr @hf_cigi3_weather_control_weather_enable, align 4
  %36 = load ptr, ptr %5, align 8
  %37 = load i32, ptr %9, align 4
  %38 = load i32, ptr @cigi_byte_order, align 4
  %39 = call ptr @proto_tree_add_item(ptr noundef %34, i32 noundef %35, ptr noundef %36, i32 noundef %37, i32 noundef 1, i32 noundef %38)
  %40 = load ptr, ptr %7, align 8
  %41 = load i32, ptr @hf_cigi3_weather_control_scud_enable, align 4
  %42 = load ptr, ptr %5, align 8
  %43 = load i32, ptr %9, align 4
  %44 = load i32, ptr @cigi_byte_order, align 4
  %45 = call ptr @proto_tree_add_item(ptr noundef %40, i32 noundef %41, ptr noundef %42, i32 noundef %43, i32 noundef 1, i32 noundef %44)
  %46 = load ptr, ptr %7, align 8
  %47 = load i32, ptr @hf_cigi3_weather_control_random_winds_enable, align 4
  %48 = load ptr, ptr %5, align 8
  %49 = load i32, ptr %9, align 4
  %50 = load i32, ptr @cigi_byte_order, align 4
  %51 = call ptr @proto_tree_add_item(ptr noundef %46, i32 noundef %47, ptr noundef %48, i32 noundef %49, i32 noundef 1, i32 noundef %50)
  %52 = load ptr, ptr %7, align 8
  %53 = load i32, ptr @hf_cigi3_weather_control_random_lightning_enable, align 4
  %54 = load ptr, ptr %5, align 8
  %55 = load i32, ptr %9, align 4
  %56 = load i32, ptr @cigi_byte_order, align 4
  %57 = call ptr @proto_tree_add_item(ptr noundef %52, i32 noundef %53, ptr noundef %54, i32 noundef %55, i32 noundef 1, i32 noundef %56)
  %58 = load ptr, ptr %7, align 8
  %59 = load i32, ptr @hf_cigi3_weather_control_cloud_type, align 4
  %60 = load ptr, ptr %5, align 8
  %61 = load i32, ptr %9, align 4
  %62 = load i32, ptr @cigi_byte_order, align 4
  %63 = call ptr @proto_tree_add_item(ptr noundef %58, i32 noundef %59, ptr noundef %60, i32 noundef %61, i32 noundef 1, i32 noundef %62)
  %64 = load i32, ptr %9, align 4
  %65 = add i32 %64, 1
  store i32 %65, ptr %9, align 4
  %66 = load ptr, ptr %7, align 8
  %67 = load i32, ptr @hf_cigi3_weather_control_scope, align 4
  %68 = load ptr, ptr %5, align 8
  %69 = load i32, ptr %9, align 4
  %70 = load i32, ptr @cigi_byte_order, align 4
  %71 = call ptr @proto_tree_add_item(ptr noundef %66, i32 noundef %67, ptr noundef %68, i32 noundef %69, i32 noundef 1, i32 noundef %70)
  %72 = load ptr, ptr %7, align 8
  %73 = load i32, ptr @hf_cigi3_weather_control_severity, align 4
  %74 = load ptr, ptr %5, align 8
  %75 = load i32, ptr %9, align 4
  %76 = load i32, ptr @cigi_byte_order, align 4
  %77 = call ptr @proto_tree_add_item(ptr noundef %72, i32 noundef %73, ptr noundef %74, i32 noundef %75, i32 noundef 1, i32 noundef %76)
  %78 = load i32, ptr %9, align 4
  %79 = add i32 %78, 1
  store i32 %79, ptr %9, align 4
  %80 = load ptr, ptr %7, align 8
  %81 = load i32, ptr @hf_cigi3_weather_control_air_temp, align 4
  %82 = load ptr, ptr %5, align 8
  %83 = load i32, ptr %9, align 4
  %84 = load i32, ptr @cigi_byte_order, align 4
  %85 = call ptr @proto_tree_add_item(ptr noundef %80, i32 noundef %81, ptr noundef %82, i32 noundef %83, i32 noundef 4, i32 noundef %84)
  %86 = load i32, ptr %9, align 4
  %87 = add i32 %86, 4
  store i32 %87, ptr %9, align 4
  %88 = load ptr, ptr %7, align 8
  %89 = load i32, ptr @hf_cigi3_weather_control_visibility_range, align 4
  %90 = load ptr, ptr %5, align 8
  %91 = load i32, ptr %9, align 4
  %92 = load i32, ptr @cigi_byte_order, align 4
  %93 = call ptr @proto_tree_add_item(ptr noundef %88, i32 noundef %89, ptr noundef %90, i32 noundef %91, i32 noundef 4, i32 noundef %92)
  %94 = load i32, ptr %9, align 4
  %95 = add i32 %94, 4
  store i32 %95, ptr %9, align 4
  %96 = load ptr, ptr %7, align 8
  %97 = load i32, ptr @hf_cigi3_weather_control_scud_frequency, align 4
  %98 = load ptr, ptr %5, align 8
  %99 = load i32, ptr %9, align 4
  %100 = load i32, ptr @cigi_byte_order, align 4
  %101 = call ptr @proto_tree_add_item(ptr noundef %96, i32 noundef %97, ptr noundef %98, i32 noundef %99, i32 noundef 4, i32 noundef %100)
  %102 = load i32, ptr %9, align 4
  %103 = add i32 %102, 4
  store i32 %103, ptr %9, align 4
  %104 = load ptr, ptr %7, align 8
  %105 = load i32, ptr @hf_cigi3_weather_control_coverage, align 4
  %106 = load ptr, ptr %5, align 8
  %107 = load i32, ptr %9, align 4
  %108 = load i32, ptr @cigi_byte_order, align 4
  %109 = call ptr @proto_tree_add_item(ptr noundef %104, i32 noundef %105, ptr noundef %106, i32 noundef %107, i32 noundef 4, i32 noundef %108)
  %110 = load i32, ptr %9, align 4
  %111 = add i32 %110, 4
  store i32 %111, ptr %9, align 4
  %112 = load ptr, ptr %7, align 8
  %113 = load i32, ptr @hf_cigi3_weather_control_base_elevation, align 4
  %114 = load ptr, ptr %5, align 8
  %115 = load i32, ptr %9, align 4
  %116 = load i32, ptr @cigi_byte_order, align 4
  %117 = call ptr @proto_tree_add_item(ptr noundef %112, i32 noundef %113, ptr noundef %114, i32 noundef %115, i32 noundef 4, i32 noundef %116)
  %118 = load i32, ptr %9, align 4
  %119 = add i32 %118, 4
  store i32 %119, ptr %9, align 4
  %120 = load ptr, ptr %7, align 8
  %121 = load i32, ptr @hf_cigi3_weather_control_thickness, align 4
  %122 = load ptr, ptr %5, align 8
  %123 = load i32, ptr %9, align 4
  %124 = load i32, ptr @cigi_byte_order, align 4
  %125 = call ptr @proto_tree_add_item(ptr noundef %120, i32 noundef %121, ptr noundef %122, i32 noundef %123, i32 noundef 4, i32 noundef %124)
  %126 = load i32, ptr %9, align 4
  %127 = add i32 %126, 4
  store i32 %127, ptr %9, align 4
  %128 = load ptr, ptr %7, align 8
  %129 = load i32, ptr @hf_cigi3_weather_control_transition_band, align 4
  %130 = load ptr, ptr %5, align 8
  %131 = load i32, ptr %9, align 4
  %132 = load i32, ptr @cigi_byte_order, align 4
  %133 = call ptr @proto_tree_add_item(ptr noundef %128, i32 noundef %129, ptr noundef %130, i32 noundef %131, i32 noundef 4, i32 noundef %132)
  %134 = load i32, ptr %9, align 4
  %135 = add i32 %134, 4
  store i32 %135, ptr %9, align 4
  %136 = load ptr, ptr %7, align 8
  %137 = load i32, ptr @hf_cigi3_weather_control_horiz_wind, align 4
  %138 = load ptr, ptr %5, align 8
  %139 = load i32, ptr %9, align 4
  %140 = load i32, ptr @cigi_byte_order, align 4
  %141 = call ptr @proto_tree_add_item(ptr noundef %136, i32 noundef %137, ptr noundef %138, i32 noundef %139, i32 noundef 4, i32 noundef %140)
  %142 = load i32, ptr %9, align 4
  %143 = add i32 %142, 4
  store i32 %143, ptr %9, align 4
  %144 = load ptr, ptr %7, align 8
  %145 = load i32, ptr @hf_cigi3_weather_control_vert_wind, align 4
  %146 = load ptr, ptr %5, align 8
  %147 = load i32, ptr %9, align 4
  %148 = load i32, ptr @cigi_byte_order, align 4
  %149 = call ptr @proto_tree_add_item(ptr noundef %144, i32 noundef %145, ptr noundef %146, i32 noundef %147, i32 noundef 4, i32 noundef %148)
  %150 = load i32, ptr %9, align 4
  %151 = add i32 %150, 4
  store i32 %151, ptr %9, align 4
  %152 = load ptr, ptr %7, align 8
  %153 = load i32, ptr @hf_cigi3_weather_control_wind_direction, align 4
  %154 = load ptr, ptr %5, align 8
  %155 = load i32, ptr %9, align 4
  %156 = load i32, ptr @cigi_byte_order, align 4
  %157 = call ptr @proto_tree_add_item(ptr noundef %152, i32 noundef %153, ptr noundef %154, i32 noundef %155, i32 noundef 4, i32 noundef %156)
  %158 = load i32, ptr %9, align 4
  %159 = add i32 %158, 4
  store i32 %159, ptr %9, align 4
  %160 = load ptr, ptr %7, align 8
  %161 = load i32, ptr @hf_cigi3_weather_control_barometric_pressure, align 4
  %162 = load ptr, ptr %5, align 8
  %163 = load i32, ptr %9, align 4
  %164 = load i32, ptr @cigi_byte_order, align 4
  %165 = call ptr @proto_tree_add_item(ptr noundef %160, i32 noundef %161, ptr noundef %162, i32 noundef %163, i32 noundef 4, i32 noundef %164)
  %166 = load i32, ptr %9, align 4
  %167 = add i32 %166, 4
  store i32 %167, ptr %9, align 4
  %168 = load ptr, ptr %7, align 8
  %169 = load i32, ptr @hf_cigi3_weather_control_aerosol_concentration, align 4
  %170 = load ptr, ptr %5, align 8
  %171 = load i32, ptr %9, align 4
  %172 = load i32, ptr @cigi_byte_order, align 4
  %173 = call ptr @proto_tree_add_item(ptr noundef %168, i32 noundef %169, ptr noundef %170, i32 noundef %171, i32 noundef 4, i32 noundef %172)
  %174 = load i32, ptr %9, align 4
  %175 = add i32 %174, 4
  store i32 %175, ptr %9, align 4
  %176 = load i32, ptr %9, align 4
  call void @llvm.lifetime.end.p0(i64 4, ptr %9) #5
  ret i32 %176
}