; Function Attrs: null_pointer_is_valid sspstrong uwtable
define internal noundef i32 @cigi3_add_weather_control(ptr noundef %0, ptr readnone captures(none) %1, ptr noundef %2, ptr readnone captures(none) %3) #0 {
  %5 = load i32, ptr @hf_cigi3_weather_control_entity_region_id, align 4
  %.b103 = load i1, ptr @cigi_byte_order, align 4
  %6 = select i1 %.b103, i32 -2147483648, i32 0
  %7 = tail call ptr @proto_tree_add_item(ptr noundef %2, i32 noundef %5, ptr noundef %0, i32 noundef 0, i32 noundef 2, i32 noundef %6)
  %8 = load i32, ptr @hf_cigi3_weather_control_layer_id, align 4
  %.b102 = load i1, ptr @cigi_byte_order, align 4
  %9 = select i1 %.b102, i32 -2147483648, i32 0
  %10 = tail call ptr @proto_tree_add_item(ptr noundef %2, i32 noundef %8, ptr noundef %0, i32 noundef 2, i32 noundef 1, i32 noundef %9)
  %11 = load i32, ptr @hf_cigi3_weather_control_humidity, align 4
  %.b101 = load i1, ptr @cigi_byte_order, align 4
  %12 = select i1 %.b101, i32 -2147483648, i32 0
  %13 = tail call ptr @proto_tree_add_item(ptr noundef %2, i32 noundef %11, ptr noundef %0, i32 noundef 3, i32 noundef 1, i32 noundef %12)
  %14 = load i32, ptr @hf_cigi3_weather_control_weather_enable, align 4
  %.b100 = load i1, ptr @cigi_byte_order, align 4
  %15 = select i1 %.b100, i32 -2147483648, i32 0
  %16 = tail call ptr @proto_tree_add_item(ptr noundef %2, i32 noundef %14, ptr noundef %0, i32 noundef 4, i32 noundef 1, i32 noundef %15)
  %17 = load i32, ptr @hf_cigi3_weather_control_scud_enable, align 4
  %.b99 = load i1, ptr @cigi_byte_order, align 4
  %18 = select i1 %.b99, i32 -2147483648, i32 0
  %19 = tail call ptr @proto_tree_add_item(ptr noundef %2, i32 noundef %17, ptr noundef %0, i32 noundef 4, i32 noundef 1, i32 noundef %18)
  %20 = load i32, ptr @hf_cigi3_weather_control_random_winds_enable, align 4
  %.b98 = load i1, ptr @cigi_byte_order, align 4
  %21 = select i1 %.b98, i32 -2147483648, i32 0
  %22 = tail call ptr @proto_tree_add_item(ptr noundef %2, i32 noundef %20, ptr noundef %0, i32 noundef 4, i32 noundef 1, i32 noundef %21)
  %23 = load i32, ptr @hf_cigi3_weather_control_random_lightning_enable, align 4
  %.b97 = load i1, ptr @cigi_byte_order, align 4
  %24 = select i1 %.b97, i32 -2147483648, i32 0
  %25 = tail call ptr @proto_tree_add_item(ptr noundef %2, i32 noundef %23, ptr noundef %0, i32 noundef 4, i32 noundef 1, i32 noundef %24)
  %26 = load i32, ptr @hf_cigi3_weather_control_cloud_type, align 4
  %.b96 = load i1, ptr @cigi_byte_order, align 4
  %27 = select i1 %.b96, i32 -2147483648, i32 0
  %28 = tail call ptr @proto_tree_add_item(ptr noundef %2, i32 noundef %26, ptr noundef %0, i32 noundef 4, i32 noundef 1, i32 noundef %27)
  %29 = load i32, ptr @hf_cigi3_weather_control_scope, align 4
  %.b95 = load i1, ptr @cigi_byte_order, align 4
  %30 = select i1 %.b95, i32 -2147483648, i32 0
  %31 = tail call ptr @proto_tree_add_item(ptr noundef %2, i32 noundef %29, ptr noundef %0, i32 noundef 5, i32 noundef 1, i32 noundef %30)
  %32 = load i32, ptr @hf_cigi3_weather_control_severity, align 4
  %.b94 = load i1, ptr @cigi_byte_order, align 4
  %33 = select i1 %.b94, i32 -2147483648, i32 0
  %34 = tail call ptr @proto_tree_add_item(ptr noundef %2, i32 noundef %32, ptr noundef %0, i32 noundef 5, i32 noundef 1, i32 noundef %33)
  %35 = load i32, ptr @hf_cigi3_weather_control_air_temp, align 4
  %.b93 = load i1, ptr @cigi_byte_order, align 4
  %36 = select i1 %.b93, i32 -2147483648, i32 0
  %37 = tail call ptr @proto_tree_add_item(ptr noundef %2, i32 noundef %35, ptr noundef %0, i32 noundef 6, i32 noundef 4, i32 noundef %36)
  %38 = load i32, ptr @hf_cigi3_weather_control_visibility_range, align 4
  %.b92 = load i1, ptr @cigi_byte_order, align 4
  %39 = select i1 %.b92, i32 -2147483648, i32 0
  %40 = tail call ptr @proto_tree_add_item(ptr noundef %2, i32 noundef %38, ptr noundef %0, i32 noundef 10, i32 noundef 4, i32 noundef %39)
  %41 = load i32, ptr @hf_cigi3_weather_control_scud_frequency, align 4
  %.b91 = load i1, ptr @cigi_byte_order, align 4
  %42 = select i1 %.b91, i32 -2147483648, i32 0
  %43 = tail call ptr @proto_tree_add_item(ptr noundef %2, i32 noundef %41, ptr noundef %0, i32 noundef 14, i32 noundef 4, i32 noundef %42)
  %44 = load i32, ptr @hf_cigi3_weather_control_coverage, align 4
  %.b90 = load i1, ptr @cigi_byte_order, align 4
  %45 = select i1 %.b90, i32 -2147483648, i32 0
  %46 = tail call ptr @proto_tree_add_item(ptr noundef %2, i32 noundef %44, ptr noundef %0, i32 noundef 18, i32 noundef 4, i32 noundef %45)
  %47 = load i32, ptr @hf_cigi3_weather_control_base_elevation, align 4
  %.b89 = load i1, ptr @cigi_byte_order, align 4
  %48 = select i1 %.b89, i32 -2147483648, i32 0
  %49 = tail call ptr @proto_tree_add_item(ptr noundef %2, i32 noundef %47, ptr noundef %0, i32 noundef 22, i32 noundef 4, i32 noundef %48)
  %50 = load i32, ptr @hf_cigi3_weather_control_thickness, align 4
  %.b88 = load i1, ptr @cigi_byte_order, align 4
  %51 = select i1 %.b88, i32 -2147483648, i32 0
  %52 = tail call ptr @proto_tree_add_item(ptr noundef %2, i32 noundef %50, ptr noundef %0, i32 noundef 26, i32 noundef 4, i32 noundef %51)
  %53 = load i32, ptr @hf_cigi3_weather_control_transition_band, align 4
  %.b87 = load i1, ptr @cigi_byte_order, align 4
  %54 = select i1 %.b87, i32 -2147483648, i32 0
  %55 = tail call ptr @proto_tree_add_item(ptr noundef %2, i32 noundef %53, ptr noundef %0, i32 noundef 30, i32 noundef 4, i32 noundef %54)
  %56 = load i32, ptr @hf_cigi3_weather_control_horiz_wind, align 4
  %.b86 = load i1, ptr @cigi_byte_order, align 4
  %57 = select i1 %.b86, i32 -2147483648, i32 0
  %58 = tail call ptr @proto_tree_add_item(ptr noundef %2, i32 noundef %56, ptr noundef %0, i32 noundef 34, i32 noundef 4, i32 noundef %57)
  %59 = load i32, ptr @hf_cigi3_weather_control_vert_wind, align 4
  %.b85 = load i1, ptr @cigi_byte_order, align 4
  %60 = select i1 %.b85, i32 -2147483648, i32 0
  %61 = tail call ptr @proto_tree_add_item(ptr noundef %2, i32 noundef %59, ptr noundef %0, i32 noundef 38, i32 noundef 4, i32 noundef %60)
  %62 = load i32, ptr @hf_cigi3_weather_control_wind_direction, align 4
  %.b84 = load i1, ptr @cigi_byte_order, align 4
  %63 = select i1 %.b84, i32 -2147483648, i32 0
  %64 = tail call ptr @proto_tree_add_item(ptr noundef %2, i32 noundef %62, ptr noundef %0, i32 noundef 42, i32 noundef 4, i32 noundef %63)
  %65 = load i32, ptr @hf_cigi3_weather_control_barometric_pressure, align 4
  %.b83 = load i1, ptr @cigi_byte_order, align 4
  %66 = select i1 %.b83, i32 -2147483648, i32 0
  %67 = tail call ptr @proto_tree_add_item(ptr noundef %2, i32 noundef %65, ptr noundef %0, i32 noundef 46, i32 noundef 4, i32 noundef %66)
  %68 = load i32, ptr @hf_cigi3_weather_control_aerosol_concentration, align 4
  %.b = load i1, ptr @cigi_byte_order, align 4
  %69 = select i1 %.b, i32 -2147483648, i32 0
  %70 = tail call ptr @proto_tree_add_item(ptr noundef %2, i32 noundef %68, ptr noundef %0, i32 noundef 50, i32 noundef 4, i32 noundef %69)
  ret i32 54
}